; ModuleID = 'source-C-CXX/35/603.c'
source_filename = "source-C-CXX/35/603.c"
target datalayout = "e-m:e-p270:32:32-p271:32:32-p272:64:64-i64:64-f80:128-n8:16:32:64-S128"
target triple = "x86_64-pc-linux-gnu"

@.str = private unnamed_addr constant [6 x i8] c"%s %s\00", align 1
@.str.1 = private unnamed_addr constant [4 x i8] c"YES\00", align 1
@.str.2 = private unnamed_addr constant [3 x i8] c"NO\00", align 1

; Function Attrs: nofree nounwind sspstrong uwtable
define dso_local void @main() local_unnamed_addr #0 {
  %1 = alloca [100 x i8], align 16
  %2 = alloca [100 x i8], align 16
  %3 = getelementptr inbounds [100 x i8], [100 x i8]* %1, i64 0, i64 0
  call void @llvm.lifetime.start.p0i8(i64 100, i8* nonnull %3) #4
  %4 = getelementptr inbounds [100 x i8], [100 x i8]* %2, i64 0, i64 0
  call void @llvm.lifetime.start.p0i8(i64 100, i8* nonnull %4) #4
  %5 = call i32 (i8*, ...) @__isoc99_scanf(i8* getelementptr inbounds ([6 x i8], [6 x i8]* @.str, i64 0, i64 0), i8* nonnull %3, i8* nonnull %4)
  %6 = call i64 @strlen(i8* noundef nonnull %3) #5
  %7 = trunc i64 %6 to i32
  %8 = call i64 @strlen(i8* noundef nonnull %4) #5
  %9 = trunc i64 %8 to i32
  %10 = icmp sgt i32 %9, 0
  %11 = icmp sgt i32 %7, 0
  %12 = select i1 %10, i1 %11, i1 false
  br i1 %12, label %13, label %37

13:                                               ; preds = %0
  %14 = and i64 %8, 4294967295
  %15 = and i64 %6, 4294967295
  br label %16

16:                                               ; preds = %13, %33
  %17 = phi i64 [ 0, %13 ], [ %35, %33 ]
  %18 = phi i32 [ 0, %13 ], [ %34, %33 ]
  %19 = getelementptr inbounds [100 x i8], [100 x i8]* %2, i64 0, i64 %17
  %20 = load i8, i8* %19, align 1, !tbaa !5
  br label %21

21:                                               ; preds = %16, %26
  %22 = phi i64 [ 0, %16 ], [ %27, %26 ]
  %23 = getelementptr inbounds [100 x i8], [100 x i8]* %1, i64 0, i64 %22
  %24 = load i8, i8* %23, align 1, !tbaa !5
  %25 = icmp eq i8 %20, %24
  br i1 %25, label %29, label %26

26:                                               ; preds = %21
  %27 = add nuw nsw i64 %22, 1
  %28 = icmp eq i64 %27, %15
  br i1 %28, label %33, label %21, !llvm.loop !8

29:                                               ; preds = %21
  %30 = and i64 %22, 4294967295
  %31 = getelementptr inbounds [100 x i8], [100 x i8]* %1, i64 0, i64 %30
  %32 = add nsw i32 %18, 1
  store i8 42, i8* %31, align 1, !tbaa !5
  br label %33

33:                                               ; preds = %26, %29
  %34 = phi i32 [ %32, %29 ], [ %18, %26 ]
  %35 = add nuw nsw i64 %17, 1
  %36 = icmp eq i64 %35, %14
  br i1 %36, label %37, label %16, !llvm.loop !10

37:                                               ; preds = %33, %0
  %38 = phi i32 [ 0, %0 ], [ %34, %33 ]
  %39 = icmp eq i32 %38, %9
  %40 = icmp eq i32 %7, %9
  %41 = select i1 %39, i1 %40, i1 false
  %42 = select i1 %41, i8* getelementptr inbounds ([4 x i8], [4 x i8]* @.str.1, i64 0, i64 0), i8* getelementptr inbounds ([3 x i8], [3 x i8]* @.str.2, i64 0, i64 0)
  %43 = call i32 (i8*, ...) @printf(i8* nonnull dereferenceable(1) %42)
  call void @llvm.lifetime.end.p0i8(i64 100, i8* nonnull %4) #4
  call void @llvm.lifetime.end.p0i8(i64 100, i8* nonnull %3) #4
  ret void
}

; Function Attrs: argmemonly mustprogress nofree nosync nounwind willreturn
declare void @llvm.lifetime.start.p0i8(i64 immarg, i8* nocapture) #1

; Function Attrs: nofree nounwind
declare noundef i32 @__isoc99_scanf(i8* nocapture noundef readonly, ...) local_unnamed_addr #2

; Function Attrs: argmemonly mustprogress nofree nounwind readonly willreturn
declare i64 @strlen(i8* nocapture) local_unnamed_addr #3

; Function Attrs: nofree nounwind
declare noundef i32 @printf(i8* nocapture noundef readonly, ...) local_unnamed_addr #2

; Function Attrs: argmemonly mustprogress nofree nosync nounwind willreturn
declare void @llvm.lifetime.end.p0i8(i64 immarg, i8* nocapture) #1


!llvm.module.flags = !{!0, !1, !2, !3}
!llvm.ident = !{!4}

!0 = !{i32 1, !"wchar_size", i32 4}
!1 = !{i32 7, !"PIC Level", i32 2}
!2 = !{i32 7, !"PIE Level", i32 2}
!3 = !{i32 7, !"uwtable", i32 1}
!4 = !{!"clang version 13.0.0"}
!5 = !{!6, !6, i64 0}
!6 = !{!"omnipotent char", !7, i64 0}
!7 = !{!"Simple C/C++ TBAA"}
!8 = distinct !{!8, !9}
!9 = !{!"llvm.loop.mustprogress"}
!10 = distinct !{!10, !9}
